(lp0
(dp1
S'url'
p2
Vhttps://www.stugknuten.com/stuga.asp?stugid=13761
p3
sS'engagement'
p4
(dp5
Vcomment_count
p6
I0
sVcomment_plugin_count
p7
I0
sVshare_count
p8
I0
sVreaction_count
p9
I2
ssa(dp10
g2
Vhttps://www.stugknuten.com/stuga.asp?stugid=24815
p11
sg4
(dp12
Vcomment_count
p13
I0
sVcomment_plugin_count
p14
I0
sVshare_count
p15
I0
sVreaction_count
p16
I0
ssa(dp17
g2
Vhttps://www.stugknuten.com/stuga.asp?stugid=24931
p18
sg4
(dp19
Vcomment_count
p20
I0
sVcomment_plugin_count
p21
I0
sVshare_count
p22
I0
sVreaction_count
p23
I0
ssa(dp24
g2
Vhttps://www.stugknuten.com/stuga.asp?stugid=21252
p25
sg4
(dp26
Vcomment_count
p27
I10
sVcomment_plugin_count
p28
I0
sVshare_count
p29
I12
sVreaction_count
p30
I31
ssa(dp31
g2
Vhttps://www.stugknuten.com/stuga.asp?stugid=21374
p32
sg4
(dp33
Vcomment_count
p34
I0
sVcomment_plugin_count
p35
I0
sVshare_count
p36
I0
sVreaction_count
p37
I1
ssa(dp38
g2
Vhttps://www.stugknuten.com/stuga.asp?stugid=21445
p39
sg4
(dp40
Vcomment_count
p41
I0
sVcomment_plugin_count
p42
I0
sVshare_count
p43
I11
sVreaction_count
p44
I33
ssa(dp45
g2
Vhttps://www.stugknuten.com/stuga.asp?stugid=21556
p46
sg4
(dp47
Vcomment_count
p48
I1
sVcomment_plugin_count
p49
I0
sVshare_count
p50
I8
sVreaction_count
p51
I22
ssa(dp52
g2
Vhttps://www.stugknuten.com/stuga.asp?stugid=21586
p53
sg4
(dp54
Vcomment_count
p55
I0
sVcomment_plugin_count
p56
I0
sVshare_count
p57
I0
sVreaction_count
p58
I0
ssa(dp59
g2
Vhttps://www.stugknuten.com/stuga.asp?stugid=21635
p60
sg4
(dp61
Vcomment_count
p62
I8
sVcomment_plugin_count
p63
I0
sVshare_count
p64
I10
sVreaction_count
p65
I15
ssa(dp66
g2
Vhttps://www.stugknuten.com/stuga.asp?stugid=21703
p67
sg4
(dp68
Vcomment_count
p69
I0
sVcomment_plugin_count
p70
I0
sVshare_count
p71
I1
sVreaction_count
p72
I0
ssa(dp73
g2
Vhttps://www.stugknuten.com/stuga.asp?stugid=21731
p74
sg4
(dp75
Vcomment_count
p76
I0
sVcomment_plugin_count
p77
I0
sVshare_count
p78
I0
sVreaction_count
p79
I0
ssa(dp80
g2
Vhttps://www.stugknuten.com/stuga.asp?stugid=21799
p81
sg4
(dp82
Vcomment_count
p83
I0
sVcomment_plugin_count
p84
I0
sVshare_count
p85
I0
sVreaction_count
p86
I1
ssa(dp87
g2
Vhttps://www.stugknuten.com/stuga.asp?stugid=21874
p88
sg4
(dp89
Vcomment_count
p90
I0
sVcomment_plugin_count
p91
I0
sVshare_count
p92
I0
sVreaction_count
p93
I0
ssa(dp94
g2
Vhttps://www.stugknuten.com/stuga.asp?stugid=21907
p95
sg4
(dp96
Vcomment_count
p97
I0
sVcomment_plugin_count
p98
I0
sVshare_count
p99
I0
sVreaction_count
p100
I1
ssa(dp101
g2
Vhttps://www.stugknuten.com/stuga.asp?stugid=21974
p102
sg4
(dp103
Vcomment_count
p104
I0
sVcomment_plugin_count
p105
I0
sVshare_count
p106
I0
sVreaction_count
p107
I0
ssa(dp108
g2
Vhttps://www.stugknuten.com/stuga.asp?stugid=22038
p109
sg4
(dp110
Vcomment_count
p111
I0
sVcomment_plugin_count
p112
I0
sVshare_count
p113
I0
sVreaction_count
p114
I0
ssa(dp115
g2
Vhttps://www.stugknuten.com/stuga.asp?stugid=22317
p116
sg4
(dp117
Vcomment_count
p118
I0
sVcomment_plugin_count
p119
I0
sVshare_count
p120
I0
sVreaction_count
p121
I0
ssa(dp122
g2
Vhttps://www.stugknuten.com/stuga.asp?stugid=22666
p123
sg4
(dp124
Vcomment_count
p125
I0
sVcomment_plugin_count
p126
I0
sVshare_count
p127
I0
sVreaction_count
p128
I0
ssa(dp129
g2
Vhttps://www.stugknuten.com/stuga.asp?stugid=22769
p130
sg4
(dp131
Vcomment_count
p132
I0
sVcomment_plugin_count
p133
I0
sVshare_count
p134
I1
sVreaction_count
p135
I0
ssa(dp136
g2
Vhttps://www.stugknuten.com/stuga.asp?stugid=22943
p137
sg4
(dp138
Vcomment_count
p139
I4
sVcomment_plugin_count
p140
I0
sVshare_count
p141
I7
sVreaction_count
p142
I24
ssa(dp143
g2
Vhttps://www.stugknuten.com/stuga.asp?stugid=23075
p144
sg4
(dp145
Vcomment_count
p146
I0
sVcomment_plugin_count
p147
I0
sVshare_count
p148
I1
sVreaction_count
p149
I0
ssa(dp150
g2
Vhttps://www.stugknuten.com/stuga.asp?stugid=23086
p151
sg4
(dp152
Vcomment_count
p153
I0
sVcomment_plugin_count
p154
I0
sVshare_count
p155
I0
sVreaction_count
p156
I0
ssa(dp157
g2
Vhttps://www.stugknuten.com/stuga.asp?stugid=23155
p158
sg4
(dp159
Vcomment_count
p160
I0
sVcomment_plugin_count
p161
I0
sVshare_count
p162
I0
sVreaction_count
p163
I0
ssa(dp164
g2
Vhttps://www.stugknuten.com/stuga.asp?stugid=23161
p165
sg4
(dp166
Vcomment_count
p167
I0
sVcomment_plugin_count
p168
I0
sVshare_count
p169
I0
sVreaction_count
p170
I0
ssa(dp171
g2
Vhttps://www.stugknuten.com/stuga.asp?stugid=23195
p172
sg4
(dp173
Vcomment_count
p174
I0
sVcomment_plugin_count
p175
I0
sVshare_count
p176
I0
sVreaction_count
p177
I0
ssa(dp178
g2
Vhttps://www.stugknuten.com/stuga.asp?stugid=23333
p179
sg4
(dp180
Vcomment_count
p181
I0
sVcomment_plugin_count
p182
I0
sVshare_count
p183
I0
sVreaction_count
p184
I0
ssa(dp185
g2
Vhttps://www.stugknuten.com/stuga.asp?stugid=23336
p186
sg4
(dp187
Vcomment_count
p188
I0
sVcomment_plugin_count
p189
I0
sVshare_count
p190
I0
sVreaction_count
p191
I0
ssa(dp192
g2
Vhttps://www.stugknuten.com/stuga.asp?stugid=23345
p193
sg4
(dp194
Vcomment_count
p195
I0
sVcomment_plugin_count
p196
I0
sVshare_count
p197
I0
sVreaction_count
p198
I0
ssa(dp199
g2
Vhttps://www.stugknuten.com/stuga.asp?stugid=23385
p200
sg4
(dp201
Vcomment_count
p202
I0
sVcomment_plugin_count
p203
I0
sVshare_count
p204
I1
sVreaction_count
p205
I0
ssa(dp206
g2
Vhttps://www.stugknuten.com/stuga.asp?stugid=23390
p207
sg4
(dp208
Vcomment_count
p209
I0
sVcomment_plugin_count
p210
I0
sVshare_count
p211
I0
sVreaction_count
p212
I0
ssa(dp213
g2
Vhttps://www.stugknuten.com/stuga.asp?stugid=23414
p214
sg4
(dp215
Vcomment_count
p216
I0
sVcomment_plugin_count
p217
I0
sVshare_count
p218
I0
sVreaction_count
p219
I0
ssa(dp220
g2
Vhttps://www.stugknuten.com/stuga.asp?stugid=23428
p221
sg4
(dp222
Vcomment_count
p223
I0
sVcomment_plugin_count
p224
I0
sVshare_count
p225
I0
sVreaction_count
p226
I0
ssa(dp227
g2
Vhttps://www.stugknuten.com/stuga.asp?stugid=23430
p228
sg4
(dp229
Vcomment_count
p230
I0
sVcomment_plugin_count
p231
I0
sVshare_count
p232
I1
sVreaction_count
p233
I24
ssa(dp234
g2
Vhttps://www.stugknuten.com/stuga.asp?stugid=8131
p235
sg4
(dp236
Vcomment_count
p237
I0
sVcomment_plugin_count
p238
I0
sVshare_count
p239
I1
sVreaction_count
p240
I0
ssa(dp241
g2
Vhttps://www.stugknuten.com/stuga.asp?stugid=6509
p242
sg4
(dp243
Vcomment_count
p244
I0
sVcomment_plugin_count
p245
I0
sVshare_count
p246
I0
sVreaction_count
p247
I0
ssa(dp248
g2
Vhttps://www.stugknuten.com/stuga.asp?stugid=7117
p249
sg4
(dp250
Vcomment_count
p251
I21
sVcomment_plugin_count
p252
I0
sVshare_count
p253
I16
sVreaction_count
p254
I3
ssa(dp255
g2
Vhttps://www.stugknuten.com/stuga.asp?stugid=23438
p256
sg4
(dp257
Vcomment_count
p258
I0
sVcomment_plugin_count
p259
I0
sVshare_count
p260
I0
sVreaction_count
p261
I0
ssa(dp262
g2
Vhttps://www.stugknuten.com/stuga.asp?stugid=23454
p263
sg4
(dp264
Vcomment_count
p265
I0
sVcomment_plugin_count
p266
I0
sVshare_count
p267
I0
sVreaction_count
p268
I1
ssa(dp269
g2
Vhttps://www.stugknuten.com/stuga.asp?stugid=23498
p270
sg4
(dp271
Vcomment_count
p272
I0
sVcomment_plugin_count
p273
I0
sVshare_count
p274
I0
sVreaction_count
p275
I0
ssa(dp276
g2
Vhttps://www.stugknuten.com/stuga.asp?stugid=23506
p277
sg4
(dp278
Vcomment_count
p279
I0
sVcomment_plugin_count
p280
I0
sVshare_count
p281
I0
sVreaction_count
p282
I0
ssa(dp283
g2
Vhttps://www.stugknuten.com/stuga.asp?stugid=23551
p284
sg4
(dp285
Vcomment_count
p286
I0
sVcomment_plugin_count
p287
I0
sVshare_count
p288
I0
sVreaction_count
p289
I0
ssa(dp290
g2
Vhttps://www.stugknuten.com/stuga.asp?stugid=23564
p291
sg4
(dp292
Vcomment_count
p293
I0
sVcomment_plugin_count
p294
I0
sVshare_count
p295
I0
sVreaction_count
p296
I0
ssa(dp297
g2
Vhttps://www.stugknuten.com/stuga.asp?stugid=23604
p298
sg4
(dp299
Vcomment_count
p300
I0
sVcomment_plugin_count
p301
I0
sVshare_count
p302
I0
sVreaction_count
p303
I0
ssa(dp304
g2
Vhttps://www.stugknuten.com/stuga.asp?stugid=23606
p305
sg4
(dp306
Vcomment_count
p307
I0
sVcomment_plugin_count
p308
I0
sVshare_count
p309
I0
sVreaction_count
p310
I0
ssa(dp311
g2
Vhttps://www.stugknuten.com/stuga.asp?stugid=23640
p312
sg4
(dp313
Vcomment_count
p314
I0
sVcomment_plugin_count
p315
I0
sVshare_count
p316
I0
sVreaction_count
p317
I1
ssa(dp318
g2
Vhttps://www.stugknuten.com/stuga.asp?stugid=23657
p319
sg4
(dp320
Vcomment_count
p321
I0
sVcomment_plugin_count
p322
I0
sVshare_count
p323
I0
sVreaction_count
p324
I0
ssa(dp325
g2
Vhttps://www.stugknuten.com/stuga.asp?stugid=23702
p326
sg4
(dp327
Vcomment_count
p328
I0
sVcomment_plugin_count
p329
I0
sVshare_count
p330
I0
sVreaction_count
p331
I0
ssa(dp332
g2
Vhttps://www.stugknuten.com/stuga.asp?stugid=23870
p333
sg4
(dp334
Vcomment_count
p335
I0
sVcomment_plugin_count
p336
I0
sVshare_count
p337
I0
sVreaction_count
p338
I1
ssa(dp339
g2
Vhttps://www.stugknuten.com/stuga.asp?stugid=23895
p340
sg4
(dp341
Vcomment_count
p342
I0
sVcomment_plugin_count
p343
I0
sVshare_count
p344
I0
sVreaction_count
p345
I1
ssa(dp346
g2
Vhttps://www.stugknuten.com/stuga.asp?stugid=23934
p347
sg4
(dp348
Vcomment_count
p349
I0
sVcomment_plugin_count
p350
I0
sVshare_count
p351
I0
sVreaction_count
p352
I0
ssa(dp353
g2
Vhttps://www.stugknuten.com/stuga.asp?stugid=23949
p354
sg4
(dp355
Vcomment_count
p356
I0
sVcomment_plugin_count
p357
I0
sVshare_count
p358
I0
sVreaction_count
p359
I0
ssa(dp360
g2
Vhttps://www.stugknuten.com/stuga.asp?stugid=18155
p361
sg4
(dp362
Vcomment_count
p363
I61
sVcomment_plugin_count
p364
I0
sVshare_count
p365
I16
sVreaction_count
p366
I6
ssa(dp367
g2
Vhttps://www.stugknuten.com/stuga.asp?stugid=13761
p368
sg4
(dp369
Vcomment_count
p370
I0
sVcomment_plugin_count
p371
I0
sVshare_count
p372
I0
sVreaction_count
p373
I2
ssa(dp374
g2
Vhttps://www.stugknuten.com/stuga.asp?stugid=24931
p375
sg4
(dp376
Vcomment_count
p377
I0
sVcomment_plugin_count
p378
I0
sVshare_count
p379
I0
sVreaction_count
p380
I0
ssa(dp381
g2
Vhttps://www.stugknuten.com/stuga.asp?stugid=23951
p382
sg4
(dp383
Vcomment_count
p384
I0
sVcomment_plugin_count
p385
I0
sVshare_count
p386
I0
sVreaction_count
p387
I0
ssa(dp388
g2
Vhttps://www.stugknuten.com/stuga.asp?stugid=23958
p389
sg4
(dp390
Vcomment_count
p391
I0
sVcomment_plugin_count
p392
I0
sVshare_count
p393
I0
sVreaction_count
p394
I0
ssa(dp395
g2
Vhttps://www.stugknuten.com/stuga.asp?stugid=23999
p396
sg4
(dp397
Vcomment_count
p398
I0
sVcomment_plugin_count
p399
I0
sVshare_count
p400
I0
sVreaction_count
p401
I0
ssa(dp402
g2
Vhttps://www.stugknuten.com/stuga.asp?stugid=24013
p403
sg4
(dp404
Vcomment_count
p405
I0
sVcomment_plugin_count
p406
I0
sVshare_count
p407
I0
sVreaction_count
p408
I0
ssa(dp409
g2
Vhttps://www.stugknuten.com/stuga.asp?stugid=24086
p410
sg4
(dp411
Vcomment_count
p412
I0
sVcomment_plugin_count
p413
I0
sVshare_count
p414
I0
sVreaction_count
p415
I0
ssa(dp416
g2
Vhttps://www.stugknuten.com/stuga.asp?stugid=24186
p417
sg4
(dp418
Vcomment_count
p419
I0
sVcomment_plugin_count
p420
I0
sVshare_count
p421
I0
sVreaction_count
p422
I0
ssa(dp423
g2
Vhttps://www.stugknuten.com/stuga.asp?stugid=24193
p424
sg4
(dp425
Vcomment_count
p426
I0
sVcomment_plugin_count
p427
I0
sVshare_count
p428
I0
sVreaction_count
p429
I0
ssa(dp430
g2
Vhttps://www.stugknuten.com/stuga.asp?stugid=24260
p431
sg4
(dp432
Vcomment_count
p433
I0
sVcomment_plugin_count
p434
I0
sVshare_count
p435
I0
sVreaction_count
p436
I0
ssa(dp437
g2
Vhttps://www.stugknuten.com/stuga.asp?stugid=24334
p438
sg4
(dp439
Vcomment_count
p440
I0
sVcomment_plugin_count
p441
I0
sVshare_count
p442
I0
sVreaction_count
p443
I0
ssa(dp444
g2
Vhttps://www.stugknuten.com/stuga.asp?stugid=24360
p445
sg4
(dp446
Vcomment_count
p447
I0
sVcomment_plugin_count
p448
I0
sVshare_count
p449
I0
sVreaction_count
p450
I0
ssa(dp451
g2
Vhttps://www.stugknuten.com/stuga.asp?stugid=24450
p452
sg4
(dp453
Vcomment_count
p454
I0
sVcomment_plugin_count
p455
I0
sVshare_count
p456
I0
sVreaction_count
p457
I0
ssa(dp458
g2
Vhttps://www.stugknuten.com/stuga.asp?stugid=24470
p459
sg4
(dp460
Vcomment_count
p461
I0
sVcomment_plugin_count
p462
I0
sVshare_count
p463
I0
sVreaction_count
p464
I0
ssa(dp465
g2
Vhttps://www.stugknuten.com/stuga.asp?stugid=24587
p466
sg4
(dp467
Vcomment_count
p468
I0
sVcomment_plugin_count
p469
I0
sVshare_count
p470
I0
sVreaction_count
p471
I0
ssa(dp472
g2
Vhttps://www.stugknuten.com/stuga.asp?stugid=24651
p473
sg4
(dp474
Vcomment_count
p475
I0
sVcomment_plugin_count
p476
I0
sVshare_count
p477
I0
sVreaction_count
p478
I0
ssa(dp479
g2
Vhttps://www.stugknuten.com/stuga.asp?stugid=24700
p480
sg4
(dp481
Vcomment_count
p482
I0
sVcomment_plugin_count
p483
I0
sVshare_count
p484
I0
sVreaction_count
p485
I0
ssa(dp486
g2
Vhttps://www.stugknuten.com/stuga.asp?stugid=14933
p487
sg4
(dp488
Vcomment_count
p489
I0
sVcomment_plugin_count
p490
I0
sVshare_count
p491
I0
sVreaction_count
p492
I0
ssa(dp493
g2
Vhttps://www.stugknuten.com/stuga.asp?stugid=12300
p494
sg4
(dp495
Vcomment_count
p496
I0
sVcomment_plugin_count
p497
I0
sVshare_count
p498
I0
sVreaction_count
p499
I0
ssa(dp500
g2
Vhttps://www.stugknuten.com/stuga.asp?stugid=24651
p501
sg4
(dp502
Vcomment_count
p503
I0
sVcomment_plugin_count
p504
I0
sVshare_count
p505
I0
sVreaction_count
p506
I0
ssa(dp507
g2
Vhttps://www.stugknuten.com/stuga.asp?stugid=24726
p508
sg4
(dp509
Vcomment_count
p510
I0
sVcomment_plugin_count
p511
I0
sVshare_count
p512
I0
sVreaction_count
p513
I0
ssa(dp514
g2
Vhttps://www.stugknuten.com/stuga.asp?stugid=24815
p515
sg4
(dp516
Vcomment_count
p517
I0
sVcomment_plugin_count
p518
I0
sVshare_count
p519
I0
sVreaction_count
p520
I0
ssa(dp521
g2
Vhttps://www.stugknuten.com/stuga.asp?stugid=24931
p522
sg4
(dp523
Vcomment_count
p524
I0
sVcomment_plugin_count
p525
I0
sVshare_count
p526
I0
sVreaction_count
p527
I0
ssa(dp528
g2
Vhttps://www.stugknuten.com/stuga.asp?stugid=2321
p529
sg4
(dp530
Vcomment_count
p531
I0
sVcomment_plugin_count
p532
I0
sVshare_count
p533
I8
sVreaction_count
p534
I4
ssa(dp535
g2
Vhttps://www.stugknuten.com/stuga.asp?stugid=2326
p536
sg4
(dp537
Vcomment_count
p538
I0
sVcomment_plugin_count
p539
I0
sVshare_count
p540
I3
sVreaction_count
p541
I1
ssa(dp542
g2
Vhttps://www.stugknuten.com/stuga.asp?stugid=2801
p543
sg4
(dp544
Vcomment_count
p545
I1
sVcomment_plugin_count
p546
I0
sVshare_count
p547
I2
sVreaction_count
p548
I0
ssa(dp549
g2
Vhttps://www.stugknuten.com/stuga.asp?stugid=2813
p550
sg4
(dp551
Vcomment_count
p552
I0
sVcomment_plugin_count
p553
I0
sVshare_count
p554
I0
sVreaction_count
p555
I0
ssa(dp556
g2
Vhttps://www.stugknuten.com/stuga.asp?stugid=3508
p557
sg4
(dp558
Vcomment_count
p559
I0
sVcomment_plugin_count
p560
I0
sVshare_count
p561
I2
sVreaction_count
p562
I4
ssa(dp563
g2
Vhttps://www.stugknuten.com/stuga.asp?stugid=4153
p564
sg4
(dp565
Vcomment_count
p566
I4
sVcomment_plugin_count
p567
I0
sVshare_count
p568
I3
sVreaction_count
p569
I5
ssa(dp570
g2
Vhttps://www.stugknuten.com/stuga.asp?stugid=5039
p571
sg4
(dp572
Vcomment_count
p573
I0
sVcomment_plugin_count
p574
I0
sVshare_count
p575
I1
sVreaction_count
p576
I0
ssa(dp577
g2
Vhttps://www.stugknuten.com/stuga.asp?stugid=6079
p578
sg4
(dp579
Vcomment_count
p580
I0
sVcomment_plugin_count
p581
I0
sVshare_count
p582
I2
sVreaction_count
p583
I0
ssa(dp584
g2
Vhttps://www.stugknuten.com/stuga.asp?stugid=6509
p585
sg4
(dp586
Vcomment_count
p587
I0
sVcomment_plugin_count
p588
I0
sVshare_count
p589
I0
sVreaction_count
p590
I0
ssa(dp591
g2
Vhttps://www.stugknuten.com/stuga.asp?stugid=6618
p592
sg4
(dp593
Vcomment_count
p594
I0
sVcomment_plugin_count
p595
I0
sVshare_count
p596
I3
sVreaction_count
p597
I2
ssa(dp598
g2
Vhttps://www.stugknuten.com/stuga.asp?stugid=6657
p599
sg4
(dp600
Vcomment_count
p601
I0
sVcomment_plugin_count
p602
I0
sVshare_count
p603
I0
sVreaction_count
p604
I0
ssa(dp605
g2
Vhttps://www.stugknuten.com/stuga.asp?stugid=6858
p606
sg4
(dp607
Vcomment_count
p608
I10
sVcomment_plugin_count
p609
I0
sVshare_count
p610
I3
sVreaction_count
p611
I0
ssa(dp612
g2
Vhttps://www.stugknuten.com/stuga.asp?stugid=8131
p613
sg4
(dp614
Vcomment_count
p615
I0
sVcomment_plugin_count
p616
I0
sVshare_count
p617
I1
sVreaction_count
p618
I0
ssa(dp619
g2
Vhttps://www.stugknuten.com/stuga.asp?stugid=14933
p620
sg4
(dp621
Vcomment_count
p622
I0
sVcomment_plugin_count
p623
I0
sVshare_count
p624
I0
sVreaction_count
p625
I0
ssa(dp626
g2
Vhttps://www.stugknuten.com/stuga.asp?stugid=7117
p627
sg4
(dp628
Vcomment_count
p629
I21
sVcomment_plugin_count
p630
I0
sVshare_count
p631
I16
sVreaction_count
p632
I3
ssa(dp633
g2
Vhttps://www.stugknuten.com/stuga.asp?stugid=7117
p634
sg4
(dp635
Vcomment_count
p636
I21
sVcomment_plugin_count
p637
I0
sVshare_count
p638
I16
sVreaction_count
p639
I3
ssa(dp640
g2
Vhttps://www.stugknuten.com/stuga.asp?stugid=7346
p641
sg4
(dp642
Vcomment_count
p643
I49
sVcomment_plugin_count
p644
I0
sVshare_count
p645
I19
sVreaction_count
p646
I46
ssa(dp647
g2
Vhttps://www.stugknuten.com/stuga.asp?stugid=8121
p648
sg4
(dp649
Vcomment_count
p650
I6
sVcomment_plugin_count
p651
I0
sVshare_count
p652
I3
sVreaction_count
p653
I9
ssa(dp654
g2
Vhttps://www.stugknuten.com/stuga.asp?stugid=8131
p655
sg4
(dp656
Vcomment_count
p657
I0
sVcomment_plugin_count
p658
I0
sVshare_count
p659
I1
sVreaction_count
p660
I0
ssa(dp661
g2
Vhttps://www.stugknuten.com/stuga.asp?stugid=8537
p662
sg4
(dp663
Vcomment_count
p664
I0
sVcomment_plugin_count
p665
I0
sVshare_count
p666
I2
sVreaction_count
p667
I0
ssa(dp668
g2
Vhttps://www.stugknuten.com/stuga.asp?stugid=8873
p669
sg4
(dp670
Vcomment_count
p671
I0
sVcomment_plugin_count
p672
I0
sVshare_count
p673
I0
sVreaction_count
p674
I0
ssa(dp675
g2
Vhttps://www.stugknuten.com/stuga.asp?stugid=9338
p676
sg4
(dp677
Vcomment_count
p678
I15
sVcomment_plugin_count
p679
I0
sVshare_count
p680
I10
sVreaction_count
p681
I7
ssa(dp682
g2
Vhttps://www.stugknuten.com/stuga.asp?stugid=9360
p683
sg4
(dp684
Vcomment_count
p685
I0
sVcomment_plugin_count
p686
I0
sVshare_count
p687
I0
sVreaction_count
p688
I0
ssa(dp689
g2
Vhttps://www.stugknuten.com/stuga.asp?stugid=9529
p690
sg4
(dp691
Vcomment_count
p692
I4
sVcomment_plugin_count
p693
I0
sVshare_count
p694
I7
sVreaction_count
p695
I0
ssa(dp696
g2
Vhttps://www.stugknuten.com/stuga.asp?stugid=10228
p697
sg4
(dp698
Vcomment_count
p699
I58
sVcomment_plugin_count
p700
I0
sVshare_count
p701
I48
sVreaction_count
p702
I99
ssa(dp703
g2
Vhttps://www.stugknuten.com/stuga.asp?stugid=10325
p704
sg4
(dp705
Vcomment_count
p706
I21
sVcomment_plugin_count
p707
I0
sVshare_count
p708
I6
sVreaction_count
p709
I33
ssa(dp710
g2
Vhttps://www.stugknuten.com/stuga.asp?stugid=10593
p711
sg4
(dp712
Vcomment_count
p713
I2
sVcomment_plugin_count
p714
I0
sVshare_count
p715
I3
sVreaction_count
p716
I2
ssa(dp717
g2
Vhttps://www.stugknuten.com/stuga.asp?stugid=10684
p718
sg4
(dp719
Vcomment_count
p720
I0
sVcomment_plugin_count
p721
I0
sVshare_count
p722
I0
sVreaction_count
p723
I0
ssa(dp724
g2
Vhttps://www.stugknuten.com/stuga.asp?stugid=10729
p725
sg4
(dp726
Vcomment_count
p727
I0
sVcomment_plugin_count
p728
I0
sVshare_count
p729
I0
sVreaction_count
p730
I1
ssa(dp731
g2
Vhttps://www.stugknuten.com/stuga.asp?stugid=10735
p732
sg4
(dp733
Vcomment_count
p734
I0
sVcomment_plugin_count
p735
I0
sVshare_count
p736
I0
sVreaction_count
p737
I0
ssa(dp738
g2
Vhttps://www.stugknuten.com/stuga.asp?stugid=24334
p739
sg4
(dp740
Vcomment_count
p741
I0
sVcomment_plugin_count
p742
I0
sVshare_count
p743
I0
sVreaction_count
p744
I0
ssa(dp745
g2
Vhttps://www.stugknuten.com/stuga.asp?stugid=11823
p746
sg4
(dp747
Vcomment_count
p748
I2
sVcomment_plugin_count
p749
I0
sVshare_count
p750
I11
sVreaction_count
p751
I16
ssa(dp752
g2
Vhttps://www.stugknuten.com/stuga.asp?stugid=18155
p753
sg4
(dp754
Vcomment_count
p755
I61
sVcomment_plugin_count
p756
I0
sVshare_count
p757
I16
sVreaction_count
p758
I6
ssa(dp759
g2
Vhttps://www.stugknuten.com/stuga.asp?stugid=10776
p760
sg4
(dp761
Vcomment_count
p762
I0
sVcomment_plugin_count
p763
I0
sVshare_count
p764
I0
sVreaction_count
p765
I0
ssa(dp766
g2
Vhttps://www.stugknuten.com/stuga.asp?stugid=11118
p767
sg4
(dp768
Vcomment_count
p769
I0
sVcomment_plugin_count
p770
I0
sVshare_count
p771
I3
sVreaction_count
p772
I1
ssa(dp773
g2
Vhttps://www.stugknuten.com/stuga.asp?stugid=11121
p774
sg4
(dp775
Vcomment_count
p776
I0
sVcomment_plugin_count
p777
I0
sVshare_count
p778
I0
sVreaction_count
p779
I0
ssa(dp780
g2
Vhttps://www.stugknuten.com/stuga.asp?stugid=11152
p781
sg4
(dp782
Vcomment_count
p783
I3
sVcomment_plugin_count
p784
I0
sVshare_count
p785
I4
sVreaction_count
p786
I0
ssa(dp787
g2
Vhttps://www.stugknuten.com/stuga.asp?stugid=11200
p788
sg4
(dp789
Vcomment_count
p790
I5
sVcomment_plugin_count
p791
I0
sVshare_count
p792
I2
sVreaction_count
p793
I5
ssa(dp794
g2
Vhttps://www.stugknuten.com/stuga.asp?stugid=11823
p795
sg4
(dp796
Vcomment_count
p797
I2
sVcomment_plugin_count
p798
I0
sVshare_count
p799
I11
sVreaction_count
p800
I16
ssa(dp801
g2
Vhttps://www.stugknuten.com/stuga.asp?stugid=12030
p802
sg4
(dp803
Vcomment_count
p804
I0
sVcomment_plugin_count
p805
I0
sVshare_count
p806
I0
sVreaction_count
p807
I0
ssa(dp808
g2
Vhttps://www.stugknuten.com/stuga.asp?stugid=12300
p809
sg4
(dp810
Vcomment_count
p811
I0
sVcomment_plugin_count
p812
I0
sVshare_count
p813
I0
sVreaction_count
p814
I0
ssa(dp815
g2
Vhttps://www.stugknuten.com/stuga.asp?stugid=12343
p816
sg4
(dp817
Vcomment_count
p818
I0
sVcomment_plugin_count
p819
I0
sVshare_count
p820
I0
sVreaction_count
p821
I0
ssa(dp822
g2
Vhttps://www.stugknuten.com/stuga.asp?stugid=12522
p823
sg4
(dp824
Vcomment_count
p825
I0
sVcomment_plugin_count
p826
I0
sVshare_count
p827
I1
sVreaction_count
p828
I2
ssa(dp829
g2
Vhttps://www.stugknuten.com/stuga.asp?stugid=12569
p830
sg4
(dp831
Vcomment_count
p832
I0
sVcomment_plugin_count
p833
I0
sVshare_count
p834
I2
sVreaction_count
p835
I2
ssa(dp836
g2
Vhttps://www.stugknuten.com/stuga.asp?stugid=12838
p837
sg4
(dp838
Vcomment_count
p839
I0
sVcomment_plugin_count
p840
I0
sVshare_count
p841
I1
sVreaction_count
p842
I3
ssa(dp843
g2
Vhttps://www.stugknuten.com/stuga.asp?stugid=13030
p844
sg4
(dp845
Vcomment_count
p846
I11
sVcomment_plugin_count
p847
I0
sVshare_count
p848
I7
sVreaction_count
p849
I4
ssa(dp850
g2
Vhttps://www.stugknuten.com/stuga.asp?stugid=13097
p851
sg4
(dp852
Vcomment_count
p853
I0
sVcomment_plugin_count
p854
I0
sVshare_count
p855
I0
sVreaction_count
p856
I0
ssa(dp857
g2
Vhttps://www.stugknuten.com/stuga.asp?stugid=13229
p858
sg4
(dp859
Vcomment_count
p860
I0
sVcomment_plugin_count
p861
I0
sVshare_count
p862
I1
sVreaction_count
p863
I2
ssa(dp864
g2
Vhttps://www.stugknuten.com/stuga.asp?stugid=8131
p865
sg4
(dp866
Vcomment_count
p867
I0
sVcomment_plugin_count
p868
I0
sVshare_count
p869
I1
sVreaction_count
p870
I0
ssa(dp871
g2
Vhttps://www.stugknuten.com/stuga.asp?stugid=7346
p872
sg4
(dp873
Vcomment_count
p874
I49
sVcomment_plugin_count
p875
I0
sVshare_count
p876
I19
sVreaction_count
p877
I46
ssa(dp878
g2
Vhttps://www.stugknuten.com/stuga.asp?stugid=13761
p879
sg4
(dp880
Vcomment_count
p881
I0
sVcomment_plugin_count
p882
I0
sVshare_count
p883
I0
sVreaction_count
p884
I2
ssa(dp885
g2
Vhttps://www.stugknuten.com/stuga.asp?stugid=13464
p886
sg4
(dp887
Vcomment_count
p888
I0
sVcomment_plugin_count
p889
I0
sVshare_count
p890
I2
sVreaction_count
p891
I6
ssa(dp892
g2
Vhttps://www.stugknuten.com/stuga.asp?stugid=13761
p893
sg4
(dp894
Vcomment_count
p895
I0
sVcomment_plugin_count
p896
I0
sVshare_count
p897
I0
sVreaction_count
p898
I2
ssa(dp899
g2
Vhttps://www.stugknuten.com/stuga.asp?stugid=13898
p900
sg4
(dp901
Vcomment_count
p902
I0
sVcomment_plugin_count
p903
I0
sVshare_count
p904
I2
sVreaction_count
p905
I1
ssa(dp906
g2
Vhttps://www.stugknuten.com/stuga.asp?stugid=13963
p907
sg4
(dp908
Vcomment_count
p909
I10
sVcomment_plugin_count
p910
I0
sVshare_count
p911
I8
sVreaction_count
p912
I14
ssa(dp913
g2
Vhttps://www.stugknuten.com/stuga.asp?stugid=14185
p914
sg4
(dp915
Vcomment_count
p916
I0
sVcomment_plugin_count
p917
I0
sVshare_count
p918
I0
sVreaction_count
p919
I0
ssa(dp920
g2
Vhttps://www.stugknuten.com/stuga.asp?stugid=14242
p921
sg4
(dp922
Vcomment_count
p923
I0
sVcomment_plugin_count
p924
I0
sVshare_count
p925
I0
sVreaction_count
p926
I1
ssa(dp927
g2
Vhttps://www.stugknuten.com/stuga.asp?stugid=14398
p928
sg4
(dp929
Vcomment_count
p930
I0
sVcomment_plugin_count
p931
I0
sVshare_count
p932
I1
sVreaction_count
p933
I1
ssa(dp934
g2
Vhttps://www.stugknuten.com/stuga.asp?stugid=14427
p935
sg4
(dp936
Vcomment_count
p937
I0
sVcomment_plugin_count
p938
I0
sVshare_count
p939
I0
sVreaction_count
p940
I0
ssa(dp941
g2
Vhttps://www.stugknuten.com/stuga.asp?stugid=14854
p942
sg4
(dp943
Vcomment_count
p944
I0
sVcomment_plugin_count
p945
I0
sVshare_count
p946
I0
sVreaction_count
p947
I0
ssa(dp948
g2
Vhttps://www.stugknuten.com/stuga.asp?stugid=14933
p949
sg4
(dp950
Vcomment_count
p951
I0
sVcomment_plugin_count
p952
I0
sVshare_count
p953
I0
sVreaction_count
p954
I0
ssa(dp955
g2
Vhttps://www.stugknuten.com/stuga.asp?stugid=15160
p956
sg4
(dp957
Vcomment_count
p958
I0
sVcomment_plugin_count
p959
I0
sVshare_count
p960
I2
sVreaction_count
p961
I0
ssa(dp962
g2
Vhttps://www.stugknuten.com/stuga.asp?stugid=15707
p963
sg4
(dp964
Vcomment_count
p965
I0
sVcomment_plugin_count
p966
I0
sVshare_count
p967
I0
sVreaction_count
p968
I0
ssa(dp969
g2
Vhttps://www.stugknuten.com/stuga.asp?stugid=15829
p970
sg4
(dp971
Vcomment_count
p972
I7
sVcomment_plugin_count
p973
I0
sVshare_count
p974
I1
sVreaction_count
p975
I1
ssa(dp976
g2
Vhttps://www.stugknuten.com/stuga.asp?stugid=15865
p977
sg4
(dp978
Vcomment_count
p979
I0
sVcomment_plugin_count
p980
I0
sVshare_count
p981
I0
sVreaction_count
p982
I0
ssa(dp983
g2
Vhttps://www.stugknuten.com/stuga.asp?stugid=16061
p984
sg4
(dp985
Vcomment_count
p986
I0
sVcomment_plugin_count
p987
I0
sVshare_count
p988
I0
sVreaction_count
p989
I1
ssa(dp990
g2
Vhttps://www.stugknuten.com/stuga.asp?stugid=6509
p991
sg4
(dp992
Vcomment_count
p993
I0
sVcomment_plugin_count
p994
I0
sVshare_count
p995
I0
sVreaction_count
p996
I0
ssa(dp997
g2
Vhttps://www.stugknuten.com/stuga.asp?stugid=2801
p998
sg4
(dp999
Vcomment_count
p1000
I1
sVcomment_plugin_count
p1001
I0
sVshare_count
p1002
I2
sVreaction_count
p1003
I0
ssa(dp1004
g2
Vhttps://www.stugknuten.com/stuga.asp?stugid=23414
p1005
sg4
(dp1006
Vcomment_count
p1007
I0
sVcomment_plugin_count
p1008
I0
sVshare_count
p1009
I0
sVreaction_count
p1010
I0
ssa(dp1011
g2
Vhttps://www.stugknuten.com/stuga.asp?stugid=16236
p1012
sg4
(dp1013
Vcomment_count
p1014
I0
sVcomment_plugin_count
p1015
I0
sVshare_count
p1016
I0
sVreaction_count
p1017
I0
ssa(dp1018
g2
Vhttps://www.stugknuten.com/stuga.asp?stugid=16474
p1019
sg4
(dp1020
Vcomment_count
p1021
I0
sVcomment_plugin_count
p1022
I0
sVshare_count
p1023
I0
sVreaction_count
p1024
I1
ssa(dp1025
g2
Vhttps://www.stugknuten.com/stuga.asp?stugid=16517
p1026
sg4
(dp1027
Vcomment_count
p1028
I0
sVcomment_plugin_count
p1029
I0
sVshare_count
p1030
I0
sVreaction_count
p1031
I1
ssa(dp1032
g2
Vhttps://www.stugknuten.com/stuga.asp?stugid=16557
p1033
sg4
(dp1034
Vcomment_count
p1035
I0
sVcomment_plugin_count
p1036
I0
sVshare_count
p1037
I1
sVreaction_count
p1038
I1
ssa(dp1039
g2
Vhttps://www.stugknuten.com/stuga.asp?stugid=16744
p1040
sg4
(dp1041
Vcomment_count
p1042
I0
sVcomment_plugin_count
p1043
I0
sVshare_count
p1044
I0
sVreaction_count
p1045
I0
ssa(dp1046
g2
Vhttps://www.stugknuten.com/stuga.asp?stugid=16785
p1047
sg4
(dp1048
Vcomment_count
p1049
I12
sVcomment_plugin_count
p1050
I0
sVshare_count
p1051
I3
sVreaction_count
p1052
I3
ssa(dp1053
g2
Vhttps://www.stugknuten.com/stuga.asp?stugid=16825
p1054
sg4
(dp1055
Vcomment_count
p1056
I0
sVcomment_plugin_count
p1057
I0
sVshare_count
p1058
I7
sVreaction_count
p1059
I1
ssa(dp1060
g2
Vhttps://www.stugknuten.com/stuga.asp?stugid=16998
p1061
sg4
(dp1062
Vcomment_count
p1063
I0
sVcomment_plugin_count
p1064
I0
sVshare_count
p1065
I0
sVreaction_count
p1066
I0
ssa(dp1067
g2
Vhttps://www.stugknuten.com/stuga.asp?stugid=17079
p1068
sg4
(dp1069
Vcomment_count
p1070
I0
sVcomment_plugin_count
p1071
I0
sVshare_count
p1072
I0
sVreaction_count
p1073
I2
ssa(dp1074
g2
Vhttps://www.stugknuten.com/stuga.asp?stugid=17404
p1075
sg4
(dp1076
Vcomment_count
p1077
I0
sVcomment_plugin_count
p1078
I0
sVshare_count
p1079
I0
sVreaction_count
p1080
I0
ssa(dp1081
g2
Vhttps://www.stugknuten.com/stuga.asp?stugid=17446
p1082
sg4
(dp1083
Vcomment_count
p1084
I0
sVcomment_plugin_count
p1085
I0
sVshare_count
p1086
I1
sVreaction_count
p1087
I2
ssa(dp1088
g2
Vhttps://www.stugknuten.com/stuga.asp?stugid=17918
p1089
sg4
(dp1090
Vcomment_count
p1091
I0
sVcomment_plugin_count
p1092
I0
sVshare_count
p1093
I0
sVreaction_count
p1094
I1
ssa(dp1095
g2
Vhttps://www.stugknuten.com/stuga.asp?stugid=17982
p1096
sg4
(dp1097
Vcomment_count
p1098
I0
sVcomment_plugin_count
p1099
I0
sVshare_count
p1100
I1
sVreaction_count
p1101
I0
ssa(dp1102
g2
Vhttps://www.stugknuten.com/stuga.asp?stugid=18018
p1103
sg4
(dp1104
Vcomment_count
p1105
I0
sVcomment_plugin_count
p1106
I0
sVshare_count
p1107
I0
sVreaction_count
p1108
I0
ssa(dp1109
g2
Vhttps://www.stugknuten.com/stuga.asp?stugid=18026
p1110
sg4
(dp1111
Vcomment_count
p1112
I0
sVcomment_plugin_count
p1113
I0
sVshare_count
p1114
I0
sVreaction_count
p1115
I0
ssa(dp1116
g2
Vhttps://www.stugknuten.com/stuga.asp?stugid=8131
p1117
sg4
(dp1118
Vcomment_count
p1119
I0
sVcomment_plugin_count
p1120
I0
sVshare_count
p1121
I1
sVreaction_count
p1122
I0
ssa(dp1123
g2
Vhttps://www.stugknuten.com/stuga.asp?stugid=18555
p1124
sg4
(dp1125
Vcomment_count
p1126
I5
sVcomment_plugin_count
p1127
I0
sVshare_count
p1128
I1
sVreaction_count
p1129
I3
ssa(dp1130
g2
Vhttps://www.stugknuten.com/stuga.asp?stugid=7346
p1131
sg4
(dp1132
Vcomment_count
p1133
I49
sVcomment_plugin_count
p1134
I0
sVshare_count
p1135
I19
sVreaction_count
p1136
I46
ssa(dp1137
g2
Vhttps://www.stugknuten.com/stuga.asp?stugid=18040
p1138
sg4
(dp1139
Vcomment_count
p1140
I0
sVcomment_plugin_count
p1141
I0
sVshare_count
p1142
I0
sVreaction_count
p1143
I0
ssa(dp1144
g2
Vhttps://www.stugknuten.com/stuga.asp?stugid=18066
p1145
sg4
(dp1146
Vcomment_count
p1147
I0
sVcomment_plugin_count
p1148
I0
sVshare_count
p1149
I0
sVreaction_count
p1150
I1
ssa(dp1151
g2
Vhttps://www.stugknuten.com/stuga.asp?stugid=18155
p1152
sg4
(dp1153
Vcomment_count
p1154
I61
sVcomment_plugin_count
p1155
I0
sVshare_count
p1156
I16
sVreaction_count
p1157
I6
ssa(dp1158
g2
Vhttps://www.stugknuten.com/stuga.asp?stugid=18422
p1159
sg4
(dp1160
Vcomment_count
p1161
I6
sVcomment_plugin_count
p1162
I0
sVshare_count
p1163
I2
sVreaction_count
p1164
I1
ssa(dp1165
g2
Vhttps://www.stugknuten.com/stuga.asp?stugid=18555
p1166
sg4
(dp1167
Vcomment_count
p1168
I5
sVcomment_plugin_count
p1169
I0
sVshare_count
p1170
I1
sVreaction_count
p1171
I3
ssa(dp1172
g2
Vhttps://www.stugknuten.com/stuga.asp?stugid=18766
p1173
sg4
(dp1174
Vcomment_count
p1175
I6
sVcomment_plugin_count
p1176
I0
sVshare_count
p1177
I3
sVreaction_count
p1178
I0
ssa(dp1179
g2
Vhttps://www.stugknuten.com/stuga.asp?stugid=19137
p1180
sg4
(dp1181
Vcomment_count
p1182
I0
sVcomment_plugin_count
p1183
I0
sVshare_count
p1184
I0
sVreaction_count
p1185
I0
ssa(dp1186
g2
Vhttps://www.stugknuten.com/stuga.asp?stugid=19256
p1187
sg4
(dp1188
Vcomment_count
p1189
I0
sVcomment_plugin_count
p1190
I0
sVshare_count
p1191
I1
sVreaction_count
p1192
I1
ssa(dp1193
g2
Vhttps://www.stugknuten.com/stuga.asp?stugid=19456
p1194
sg4
(dp1195
Vcomment_count
p1196
I0
sVcomment_plugin_count
p1197
I0
sVshare_count
p1198
I6
sVreaction_count
p1199
I1
ssa(dp1200
g2
Vhttps://www.stugknuten.com/stuga.asp?stugid=19520
p1201
sg4
(dp1202
Vcomment_count
p1203
I1
sVcomment_plugin_count
p1204
I0
sVshare_count
p1205
I1
sVreaction_count
p1206
I0
ssa(dp1207
g2
Vhttps://www.stugknuten.com/stuga.asp?stugid=19583
p1208
sg4
(dp1209
Vcomment_count
p1210
I13
sVcomment_plugin_count
p1211
I0
sVshare_count
p1212
I2
sVreaction_count
p1213
I0
ssa(dp1214
g2
Vhttps://www.stugknuten.com/stuga.asp?stugid=19746
p1215
sg4
(dp1216
Vcomment_count
p1217
I0
sVcomment_plugin_count
p1218
I0
sVshare_count
p1219
I0
sVreaction_count
p1220
I0
ssa(dp1221
g2
Vhttps://www.stugknuten.com/stuga.asp?stugid=19769
p1222
sg4
(dp1223
Vcomment_count
p1224
I0
sVcomment_plugin_count
p1225
I0
sVshare_count
p1226
I0
sVreaction_count
p1227
I0
ssa(dp1228
g2
Vhttps://www.stugknuten.com/stuga.asp?stugid=19875
p1229
sg4
(dp1230
Vcomment_count
p1231
I0
sVcomment_plugin_count
p1232
I0
sVshare_count
p1233
I0
sVreaction_count
p1234
I1
ssa(dp1235
g2
Vhttps://www.stugknuten.com/stuga.asp?stugid=19943
p1236
sg4
(dp1237
Vcomment_count
p1238
I1
sVcomment_plugin_count
p1239
I0
sVshare_count
p1240
I2
sVreaction_count
p1241
I0
ssa(dp1242
g2
Vhttps://www.stugknuten.com/stuga.asp?stugid=14933
p1243
sg4
(dp1244
Vcomment_count
p1245
I0
sVcomment_plugin_count
p1246
I0
sVshare_count
p1247
I0
sVreaction_count
p1248
I0
ssa(dp1249
g2
Vhttps://www.stugknuten.com/stuga.asp?stugid=24815
p1250
sg4
(dp1251
Vcomment_count
p1252
I0
sVcomment_plugin_count
p1253
I0
sVshare_count
p1254
I0
sVreaction_count
p1255
I0
ssa(dp1256
g2
Vhttps://www.stugknuten.com/stuga.asp?stugid=6509
p1257
sg4
(dp1258
Vcomment_count
p1259
I0
sVcomment_plugin_count
p1260
I0
sVshare_count
p1261
I0
sVreaction_count
p1262
I0
ssa(dp1263
g2
Vhttps://www.stugknuten.com/stuga.asp?stugid=19972
p1264
sg4
(dp1265
Vcomment_count
p1266
I0
sVcomment_plugin_count
p1267
I0
sVshare_count
p1268
I0
sVreaction_count
p1269
I0
ssa(dp1270
g2
Vhttps://www.stugknuten.com/stuga.asp?stugid=20251
p1271
sg4
(dp1272
Vcomment_count
p1273
I0
sVcomment_plugin_count
p1274
I0
sVshare_count
p1275
I1
sVreaction_count
p1276
I0
ssa(dp1277
g2
Vhttps://www.stugknuten.com/stuga.asp?stugid=20354
p1278
sg4
(dp1279
Vcomment_count
p1280
I0
sVcomment_plugin_count
p1281
I0
sVshare_count
p1282
I0
sVreaction_count
p1283
I0
ssa(dp1284
g2
Vhttps://www.stugknuten.com/stuga.asp?stugid=20690
p1285
sg4
(dp1286
Vcomment_count
p1287
I31
sVcomment_plugin_count
p1288
I0
sVshare_count
p1289
I10
sVreaction_count
p1290
I13
ssa(dp1291
g2
Vhttps://www.stugknuten.com/stuga.asp?stugid=20699
p1292
sg4
(dp1293
Vcomment_count
p1294
I0
sVcomment_plugin_count
p1295
I0
sVshare_count
p1296
I0
sVreaction_count
p1297
I0
ssa(dp1298
g2
Vhttps://www.stugknuten.com/stuga.asp?stugid=20787
p1299
sg4
(dp1300
Vcomment_count
p1301
I0
sVcomment_plugin_count
p1302
I0
sVshare_count
p1303
I0
sVreaction_count
p1304
I0
ssa(dp1305
g2
Vhttps://www.stugknuten.com/stuga.asp?stugid=20891
p1306
sg4
(dp1307
Vcomment_count
p1308
I10
sVcomment_plugin_count
p1309
I0
sVshare_count
p1310
I2
sVreaction_count
p1311
I1
ssa(dp1312
g2
Vhttps://www.stugknuten.com/stuga.asp?stugid=21109
p1313
sg4
(dp1314
Vcomment_count
p1315
I0
sVcomment_plugin_count
p1316
I0
sVshare_count
p1317
I0
sVreaction_count
p1318
I0
ssa(dp1319
g2
Vhttps://www.stugknuten.com/stuga.asp?stugid=21142
p1320
sg4
(dp1321
Vcomment_count
p1322
I0
sVcomment_plugin_count
p1323
I0
sVshare_count
p1324
I0
sVreaction_count
p1325
I0
ssa(dp1326
g2
Vhttps://www.stugknuten.com/stuga.asp?stugid=21216
p1327
sg4
(dp1328
Vcomment_count
p1329
I0
sVcomment_plugin_count
p1330
I0
sVshare_count
p1331
I0
sVreaction_count
p1332
I2
ssa(dp1333
g2
Vhttps://www.stugknuten.com/stuga.asp?stugid=18155
p1334
sg4
(dp1335
Vcomment_count
p1336
I61
sVcomment_plugin_count
p1337
I0
sVshare_count
p1338
I16
sVreaction_count
p1339
I6
ssa(dp1340
g2
Vhttps://www.stugknuten.com/stuga.asp?stugid=24931
p1341
sg4
(dp1342
Vcomment_count
p1343
I0
sVcomment_plugin_count
p1344
I0
sVshare_count
p1345
I0
sVreaction_count
p1346
I0
ssa(dp1347
g2
Vhttps://www.stugknuten.com/stuga.asp?stugid=14933
p1348
sg4
(dp1349
Vcomment_count
p1350
I0
sVcomment_plugin_count
p1351
I0
sVshare_count
p1352
I0
sVreaction_count
p1353
I0
ssa.