(lp0
V/stuga.asp?stugid=13761
p1
aV/stuga.asp?stugid=24815
p2
aV/stuga.asp?stugid=24931
p3
aV/stuga.asp?stugid=21252
p4
aV/stuga.asp?stugid=21374
p5
aV/stuga.asp?stugid=21445
p6
aV/stuga.asp?stugid=21556
p7
aV/stuga.asp?stugid=21586
p8
aV/stuga.asp?stugid=21635
p9
aV/stuga.asp?stugid=21703
p10
aV/stuga.asp?stugid=21731
p11
aV/stuga.asp?stugid=21799
p12
aV/stuga.asp?stugid=21874
p13
aV/stuga.asp?stugid=21907
p14
aV/stuga.asp?stugid=21974
p15
aV/stuga.asp?stugid=22038
p16
aV/stuga.asp?stugid=22317
p17
aV/stuga.asp?stugid=22666
p18
aV/stuga.asp?stugid=22769
p19
aV/stuga.asp?stugid=22943
p20
aV/stuga.asp?stugid=23075
p21
aV/stuga.asp?stugid=23086
p22
aV/stuga.asp?stugid=23155
p23
aV/stuga.asp?stugid=23161
p24
aV/stuga.asp?stugid=23195
p25
aV/stuga.asp?stugid=23333
p26
aV/stuga.asp?stugid=23336
p27
aV/stuga.asp?stugid=23345
p28
aV/stuga.asp?stugid=23385
p29
aV/stuga.asp?stugid=23390
p30
aV/stuga.asp?stugid=23414
p31
aV/stuga.asp?stugid=23428
p32
aV/stuga.asp?stugid=23430
p33
aV/stuga.asp?stugid=8131
p34
aV/stuga.asp?stugid=6509
p35
aV/stuga.asp?stugid=7117
p36
aV/stuga.asp?stugid=23438
p37
aV/stuga.asp?stugid=23454
p38
aV/stuga.asp?stugid=23498
p39
aV/stuga.asp?stugid=23506
p40
aV/stuga.asp?stugid=23551
p41
aV/stuga.asp?stugid=23564
p42
aV/stuga.asp?stugid=23604
p43
aV/stuga.asp?stugid=23606
p44
aV/stuga.asp?stugid=23640
p45
aV/stuga.asp?stugid=23657
p46
aV/stuga.asp?stugid=23702
p47
aV/stuga.asp?stugid=23870
p48
aV/stuga.asp?stugid=23895
p49
aV/stuga.asp?stugid=23934
p50
aV/stuga.asp?stugid=23949
p51
aV/stuga.asp?stugid=18155
p52
aV/stuga.asp?stugid=13761
p53
aV/stuga.asp?stugid=24931
p54
aV/stuga.asp?stugid=23951
p55
aV/stuga.asp?stugid=23958
p56
aV/stuga.asp?stugid=23999
p57
aV/stuga.asp?stugid=24013
p58
aV/stuga.asp?stugid=24086
p59
aV/stuga.asp?stugid=24186
p60
aV/stuga.asp?stugid=24193
p61
aV/stuga.asp?stugid=24260
p62
aV/stuga.asp?stugid=24334
p63
aV/stuga.asp?stugid=24360
p64
aV/stuga.asp?stugid=24450
p65
aV/stuga.asp?stugid=24470
p66
aV/stuga.asp?stugid=24587
p67
aV/stuga.asp?stugid=24651
p68
aV/stuga.asp?stugid=24700
p69
aV/stuga.asp?stugid=14933
p70
aV/stuga.asp?stugid=12300
p71
aV/stuga.asp?stugid=24651
p72
aV/stuga.asp?stugid=24726
p73
aV/stuga.asp?stugid=24815
p74
aV/stuga.asp?stugid=24931
p75
aV/stuga.asp?stugid=2321
p76
aV/stuga.asp?stugid=2326
p77
aV/stuga.asp?stugid=2801
p78
aV/stuga.asp?stugid=2813
p79
aV/stuga.asp?stugid=3508
p80
aV/stuga.asp?stugid=4153
p81
aV/stuga.asp?stugid=5039
p82
aV/stuga.asp?stugid=6079
p83
aV/stuga.asp?stugid=6509
p84
aV/stuga.asp?stugid=6618
p85
aV/stuga.asp?stugid=6657
p86
aV/stuga.asp?stugid=6858
p87
aV/stuga.asp?stugid=8131
p88
aV/stuga.asp?stugid=14933
p89
aV/stuga.asp?stugid=7117
p90
aV/stuga.asp?stugid=7117
p91
aV/stuga.asp?stugid=7346
p92
aV/stuga.asp?stugid=8121
p93
aV/stuga.asp?stugid=8131
p94
aV/stuga.asp?stugid=8537
p95
aV/stuga.asp?stugid=8873
p96
aV/stuga.asp?stugid=9338
p97
aV/stuga.asp?stugid=9360
p98
aV/stuga.asp?stugid=9529
p99
aV/stuga.asp?stugid=10228
p100
aV/stuga.asp?stugid=10325
p101
aV/stuga.asp?stugid=10593
p102
aV/stuga.asp?stugid=10684
p103
aV/stuga.asp?stugid=10729
p104
aV/stuga.asp?stugid=10735
p105
aV/stuga.asp?stugid=24334
p106
aV/stuga.asp?stugid=11823
p107
aV/stuga.asp?stugid=18155
p108
aV/stuga.asp?stugid=10776
p109
aV/stuga.asp?stugid=11118
p110
aV/stuga.asp?stugid=11121
p111
aV/stuga.asp?stugid=11152
p112
aV/stuga.asp?stugid=11200
p113
aV/stuga.asp?stugid=11823
p114
aV/stuga.asp?stugid=12030
p115
aV/stuga.asp?stugid=12300
p116
aV/stuga.asp?stugid=12343
p117
aV/stuga.asp?stugid=12522
p118
aV/stuga.asp?stugid=12569
p119
aV/stuga.asp?stugid=12838
p120
aV/stuga.asp?stugid=13030
p121
aV/stuga.asp?stugid=13097
p122
aV/stuga.asp?stugid=13229
p123
aV/stuga.asp?stugid=8131
p124
aV/stuga.asp?stugid=7346
p125
aV/stuga.asp?stugid=13761
p126
aV/stuga.asp?stugid=13464
p127
aV/stuga.asp?stugid=13761
p128
aV/stuga.asp?stugid=13898
p129
aV/stuga.asp?stugid=13963
p130
aV/stuga.asp?stugid=14185
p131
aV/stuga.asp?stugid=14242
p132
aV/stuga.asp?stugid=14398
p133
aV/stuga.asp?stugid=14427
p134
aV/stuga.asp?stugid=14854
p135
aV/stuga.asp?stugid=14933
p136
aV/stuga.asp?stugid=15160
p137
aV/stuga.asp?stugid=15707
p138
aV/stuga.asp?stugid=15829
p139
aV/stuga.asp?stugid=15865
p140
aV/stuga.asp?stugid=16061
p141
aV/stuga.asp?stugid=6509
p142
aV/stuga.asp?stugid=2801
p143
aV/stuga.asp?stugid=23414
p144
aV/stuga.asp?stugid=16236
p145
aV/stuga.asp?stugid=16474
p146
aV/stuga.asp?stugid=16517
p147
aV/stuga.asp?stugid=16557
p148
aV/stuga.asp?stugid=16744
p149
aV/stuga.asp?stugid=16785
p150
aV/stuga.asp?stugid=16825
p151
aV/stuga.asp?stugid=16998
p152
aV/stuga.asp?stugid=17079
p153
aV/stuga.asp?stugid=17404
p154
aV/stuga.asp?stugid=17446
p155
aV/stuga.asp?stugid=17918
p156
aV/stuga.asp?stugid=17982
p157
aV/stuga.asp?stugid=18018
p158
aV/stuga.asp?stugid=18026
p159
aV/stuga.asp?stugid=8131
p160
aV/stuga.asp?stugid=18555
p161
aV/stuga.asp?stugid=7346
p162
aV/stuga.asp?stugid=18040
p163
aV/stuga.asp?stugid=18066
p164
aV/stuga.asp?stugid=18155
p165
aV/stuga.asp?stugid=18422
p166
aV/stuga.asp?stugid=18555
p167
aV/stuga.asp?stugid=18766
p168
aV/stuga.asp?stugid=19137
p169
aV/stuga.asp?stugid=19256
p170
aV/stuga.asp?stugid=19456
p171
aV/stuga.asp?stugid=19520
p172
aV/stuga.asp?stugid=19583
p173
aV/stuga.asp?stugid=19746
p174
aV/stuga.asp?stugid=19769
p175
aV/stuga.asp?stugid=19875
p176
aV/stuga.asp?stugid=19943
p177
aV/stuga.asp?stugid=14933
p178
aV/stuga.asp?stugid=24815
p179
aV/stuga.asp?stugid=6509
p180
aV/stuga.asp?stugid=19972
p181
aV/stuga.asp?stugid=20251
p182
aV/stuga.asp?stugid=20354
p183
aV/stuga.asp?stugid=20690
p184
aV/stuga.asp?stugid=20699
p185
aV/stuga.asp?stugid=20787
p186
aV/stuga.asp?stugid=20891
p187
aV/stuga.asp?stugid=21109
p188
aV/stuga.asp?stugid=21142
p189
aV/stuga.asp?stugid=21216
p190
aV/stuga.asp?stugid=18155
p191
aV/stuga.asp?stugid=24931
p192
aV/stuga.asp?stugid=14933
p193
a.